; Function Attrs: nounwind uwtable
define noalias noundef ptr @php_getenv(ptr nocapture noundef readonly %0, i64 noundef %1) local_unnamed_addr #0 {
  %3 = tail call ptr @getenv(ptr noundef %0) #18
  %.not = icmp eq ptr %3, null
  br i1 %.not, label %14, label %4

4:                                                ; preds = %2
  %5 = tail call i64 @strlen(ptr noundef nonnull dereferenceable(1) %3) #19
  %6 = and i64 %5, -8
  %7 = add i64 %6, 32
  %8 = tail call noalias ptr @_emalloc(i64 noundef %7) #20
  store i32 1, ptr %8, align 4
  %9 = getelementptr inbounds i8, ptr %8, i64 4
  store i32 22, ptr %9, align 4
  %10 = getelementptr inbounds i8, ptr %8, i64 8
  store i64 0, ptr %10, align 8
  %11 = getelementptr inbounds i8, ptr %8, i64 16
  store i64 %5, ptr %11, align 8
  %12 = getelementptr inbounds i8, ptr %8, i64 24
  tail call void @llvm.memcpy.p0.p0.i64(ptr nonnull align 8 %12, ptr nonnull align 1 %3, i64 %5, i1 false)
  %13 = getelementptr inbounds [1 x i8], ptr %12, i64 0, i64 %5
  store i8 0, ptr %13, align 1
  br label %14

14:                                               ; preds = %4, %2
  %.0 = phi ptr [ %8, %4 ], [ null, %2 ]
  ret ptr %.0
}